target datalayout = "e-m:e-p270:32:32-p271:32:32-p272:64:64-i64:64-i128:128-f80:128-n8:16:32:64-S128"
target triple = "x86_64-pc-linux-gnu"

@.str.29 = private unnamed_addr constant [16 x i8] c"_quit darktable\00", align 1
@.str.241 = private unnamed_addr constant [183 x i8] c"the database schema version of\0A\0A<span style='italic'>%s</span>\0A\0Ais too new for this build of darktable (this means the database was created or upgraded by a newer darktable version)\0A\00", align 1
@.str.242 = private unnamed_addr constant [31 x i8] c"darktable - too new db version\00", align 1

; Function Attrs: nounwind uwtable
define internal void @_too_new_db_version(ptr noundef %0, i32 noundef %1) #0 {
  %3 = alloca ptr, align 8
  %4 = alloca i32, align 4
  %5 = alloca ptr, align 8
  store ptr %0, ptr %3, align 8, !tbaa !18
  store i32 %1, ptr %4, align 4, !tbaa !21
  %6 = load i32, ptr %4, align 4, !tbaa !21
  %7 = icmp ne i32 %6, 0
  br i1 %7, label %9, label %8

8:                                                ; preds = %2
  call void @exit(i32 noundef 1) #15
  unreachable

9:                                                ; preds = %2
  call void @llvm.lifetime.start.p0(i64 8, ptr %5) #13
  %10 = call ptr @dcgettext(ptr noundef null, ptr noundef @.str.241, i32 noundef 5) #13
  %11 = load ptr, ptr %3, align 8, !tbaa !18
  %12 = call ptr (ptr, ...) @g_markup_printf_escaped(ptr noundef %10, ptr noundef %11)
  store ptr %12, ptr %5, align 8, !tbaa !18
  %13 = call ptr @dcgettext(ptr noundef null, ptr noundef @.str.242, i32 noundef 5) #13
  %14 = load ptr, ptr %5, align 8, !tbaa !18
  %15 = call ptr @dcgettext(ptr noundef null, ptr noundef @.str.29, i32 noundef 5) #13
  %16 = call i32 @dt_gui_show_standalone_yes_no_dialog(ptr noundef %13, ptr noundef %14, ptr noundef %15, ptr noundef null)
  %17 = load ptr, ptr %5, align 8, !tbaa !18
  call void @g_free(ptr noundef %17)
  call void @llvm.lifetime.end.p0(i64 8, ptr %5) #13
  ret void
}