; Function Attrs: nounwind uwtable
define internal fastcc void @_too_new_db_version(ptr noundef nonnull %0, i32 noundef %1) unnamed_addr #0 {
  %.not = icmp eq i32 %1, 0
  br i1 %.not, label %3, label %4

3:                                                ; preds = %2
  tail call void @exit(i32 noundef 1) #20
  unreachable

4:                                                ; preds = %2
  %5 = tail call ptr @dcgettext(ptr noundef null, ptr noundef nonnull @.str.241, i32 noundef 5) #18
  %6 = tail call ptr (ptr, ...) @g_markup_printf_escaped(ptr noundef %5, ptr noundef nonnull %0) #18
  %7 = tail call ptr @dcgettext(ptr noundef null, ptr noundef nonnull @.str.242, i32 noundef 5) #18
  %8 = tail call ptr @dcgettext(ptr noundef null, ptr noundef nonnull @.str.29, i32 noundef 5) #18
  %9 = tail call i32 @dt_gui_show_standalone_yes_no_dialog(ptr noundef %7, ptr noundef %6, ptr noundef %8, ptr noundef null) #18
  tail call void @g_free(ptr noundef %6) #18
  ret void
}